; Function Attrs: mustprogress nounwind uwtable
define internal void @"_ZN2rc3SeqINS_5MaybeINS_10ShrinkableINSt7__cxx1112basic_stringIcSt11char_traitsIcESaIcEEEEEEEE7SeqImplINS_3seq6detail6MapSeqIZZNS_10shrinkable6filterIS8_RKZNS_9ArbitraryIN3nix13StorePathNameEvE9arbitraryEvE3$_0EENS1_INS2_IT_EEEESQ_OT0_ENKUlONS0_IS9_EEE_clESV_EUlOS9_E_S9_EEED2Ev"(ptr nocapture noundef nonnull align 8 dereferenceable(24) %0) unnamed_addr #5 align 2 {
  store ptr getelementptr inbounds ({ [6 x ptr] }, ptr @"_ZTVN2rc3SeqINS_5MaybeINS_10ShrinkableINSt7__cxx1112basic_stringIcSt11char_traitsIcESaIcEEEEEEEE7SeqImplINS_3seq6detail6MapSeqIZZNS_10shrinkable6filterIS8_RKZNS_9ArbitraryIN3nix13StorePathNameEvE9arbitraryEvE3$_0EENS1_INS2_IT_EEEESQ_OT0_ENKUlONS0_IS9_EEE_clESV_EUlOS9_E_S9_EEEE", i64 0, i32 0, i64 2), ptr %0, align 8
  %2 = getelementptr inbounds i8, ptr %0, i64 16
  %3 = load ptr, ptr %2, align 8
  %.not.i.i.i = icmp eq ptr %3, null
  br i1 %.not.i.i.i, label %"_ZN2rc3seq6detail6MapSeqIZZNS_10shrinkable6filterINSt7__cxx1112basic_stringIcSt11char_traitsIcESaIcEEERKZNS_9ArbitraryIN3nix13StorePathNameEvE9arbitraryEvE3$_0EENS_5MaybeINS_10ShrinkableIT_EEEESL_OT0_ENKUlONS_3SeqINSJ_ISA_EEEEE_clB5cxx11ESS_EUlOSQ_E_SQ_ED2Ev.exit", label %_ZNKSt14default_deleteIN2rc3SeqINS0_10ShrinkableINSt7__cxx1112basic_stringIcSt11char_traitsIcESaIcEEEEEE8ISeqImplEEclEPSB_.exit.i.i.i

_ZNKSt14default_deleteIN2rc3SeqINS0_10ShrinkableINSt7__cxx1112basic_stringIcSt11char_traitsIcESaIcEEEEEE8ISeqImplEEclEPSB_.exit.i.i.i: ; preds = %1
  %4 = load ptr, ptr %3, align 8
  %5 = getelementptr inbounds i8, ptr %4, i64 24
  %6 = load ptr, ptr %5, align 8
  tail call void %6(ptr noundef nonnull align 8 dereferenceable(8) %3) #21
  br label %"_ZN2rc3seq6detail6MapSeqIZZNS_10shrinkable6filterINSt7__cxx1112basic_stringIcSt11char_traitsIcESaIcEEERKZNS_9ArbitraryIN3nix13StorePathNameEvE9arbitraryEvE3$_0EENS_5MaybeINS_10ShrinkableIT_EEEESL_OT0_ENKUlONS_3SeqINSJ_ISA_EEEEE_clB5cxx11ESS_EUlOSQ_E_SQ_ED2Ev.exit"

"_ZN2rc3seq6detail6MapSeqIZZNS_10shrinkable6filterINSt7__cxx1112basic_stringIcSt11char_traitsIcESaIcEEERKZNS_9ArbitraryIN3nix13StorePathNameEvE9arbitraryEvE3$_0EENS_5MaybeINS_10ShrinkableIT_EEEESL_OT0_ENKUlONS_3SeqINSJ_ISA_EEEEE_clB5cxx11ESS_EUlOSQ_E_SQ_ED2Ev.exit": ; preds = %1, %_ZNKSt14default_deleteIN2rc3SeqINS0_10ShrinkableINSt7__cxx1112basic_stringIcSt11char_traitsIcESaIcEEEEEE8ISeqImplEEclEPSB_.exit.i.i.i
  store ptr null, ptr %2, align 8
  ret void
}